; Function Attrs: nofree noinline norecurse nosync nounwind memory(argmem: readwrite) uwtable
define internal fastcc void @put_bilin_1d_v_c(ptr noundef writeonly captures(none) %0, i64 noundef %1, ptr noundef readonly captures(none) %2, i64 noundef %3, i32 noundef range(i32 4, 65) %4, i32 noundef %5, i32 noundef %6) unnamed_addr #9 {
  %wide.trip.count = zext nneg i32 %4 to i64
  br label %8

8:                                                ; preds = %24, %7
  %.036.i = phi i32 [ %5, %7 ], [ %26, %24 ]
  %.035.i = phi ptr [ %0, %7 ], [ %25, %24 ]
  %.034.i = phi ptr [ %2, %7 ], [ %9, %24 ]
  %9 = getelementptr i8, ptr %.034.i, i64 %3
  br label %10

10:                                               ; preds = %8, %10
  %indvars.iv = phi i64 [ 0, %8 ], [ %indvars.iv.next, %10 ]
  %11 = getelementptr inbounds nuw i8, ptr %.034.i, i64 %indvars.iv
  %12 = load i8, ptr %11, align 1, !tbaa !8
  %13 = zext i8 %12 to i32
  %14 = getelementptr i8, ptr %9, i64 %indvars.iv
  %15 = load i8, ptr %14, align 1, !tbaa !8
  %16 = zext i8 %15 to i32
  %17 = sub nsw i32 %16, %13
  %18 = mul nsw i32 %17, %6
  %19 = add nsw i32 %18, 8
  %20 = lshr i32 %19, 4
  %21 = trunc i32 %20 to i8
  %22 = add i8 %12, %21
  %23 = getelementptr inbounds nuw i8, ptr %.035.i, i64 %indvars.iv
  store i8 %22, ptr %23, align 1, !tbaa !8
  %indvars.iv.next = add nuw nsw i64 %indvars.iv, 1
  %exitcond.not = icmp eq i64 %indvars.iv.next, %wide.trip.count
  br i1 %exitcond.not, label %24, label %10, !llvm.loop !191

24:                                               ; preds = %10
  %25 = getelementptr inbounds i8, ptr %.035.i, i64 %1
  %26 = add nsw i32 %.036.i, -1
  %.not.i = icmp eq i32 %26, 0
  br i1 %.not.i, label %do_bilin_1d_c.exit, label %8, !llvm.loop !192

do_bilin_1d_c.exit:                               ; preds = %24
  ret void
}